target datalayout = "e-m:e-p270:32:32-p271:32:32-p272:64:64-i64:64-i128:128-f80:128-n8:16:32:64-S128"
target triple = "x86_64-pc-linux-gnu"

@ff_adpcm_step_table = external constant [89 x i16], align 16
@predict_table = internal global [11572 x i16] zeroinitializer, align 16

; Function Attrs: cold nounwind optsize uwtable
define internal void @predict_table_init() #0 {
  %1 = alloca i32, align 4
  %2 = alloca i32, align 4
  %3 = alloca i32, align 4
  %4 = alloca i32, align 4
  %5 = alloca i32, align 4
  %6 = alloca i32, align 4
  call void @llvm.lifetime.start.p0(i64 4, ptr %1) #6
  store i32 0, ptr %1, align 4, !tbaa !34
  br label %7

7:                                                ; preds = %53, %0
  %8 = load i32, ptr %1, align 4, !tbaa !34
  %9 = icmp slt i32 %8, 64
  br i1 %9, label %11, label %10

10:                                               ; preds = %7
  call void @llvm.lifetime.end.p0(i64 4, ptr %1) #6
  br label %56

11:                                               ; preds = %7
  call void @llvm.lifetime.start.p0(i64 4, ptr %2) #6
  call void @llvm.lifetime.start.p0(i64 4, ptr %3) #6
  store i32 0, ptr %3, align 4, !tbaa !34
  %12 = load i32, ptr %1, align 4, !tbaa !34
  store i32 %12, ptr %2, align 4, !tbaa !34
  br label %13

13:                                               ; preds = %47, %11
  %14 = load i32, ptr %3, align 4, !tbaa !34
  %15 = zext i32 %14 to i64
  %16 = icmp ult i64 %15, 89
  br i1 %16, label %17, label %52

17:                                               ; preds = %13
  call void @llvm.lifetime.start.p0(i64 4, ptr %4) #6
  store i32 0, ptr %4, align 4, !tbaa !34
  call void @llvm.lifetime.start.p0(i64 4, ptr %5) #6
  call void @llvm.lifetime.start.p0(i64 4, ptr %6) #6
  %18 = load i32, ptr %3, align 4, !tbaa !34
  %19 = zext i32 %18 to i64
  %20 = getelementptr inbounds nuw [89 x i16], ptr @ff_adpcm_step_table, i64 0, i64 %19
  %21 = load i16, ptr %20, align 2, !tbaa !39
  %22 = sext i16 %21 to i32
  store i32 %22, ptr %6, align 4, !tbaa !34
  store i32 32, ptr %5, align 4, !tbaa !34
  br label %23

23:                                               ; preds = %38, %17
  %24 = load i32, ptr %5, align 4, !tbaa !34
  %25 = icmp ne i32 %24, 0
  br i1 %25, label %26, label %41

26:                                               ; preds = %23
  %27 = load i32, ptr %1, align 4, !tbaa !34
  %28 = load i32, ptr %5, align 4, !tbaa !34
  %29 = and i32 %27, %28
  %30 = icmp ne i32 %29, 0
  br i1 %30, label %31, label %35

31:                                               ; preds = %26
  %32 = load i32, ptr %6, align 4, !tbaa !34
  %33 = load i32, ptr %4, align 4, !tbaa !34
  %34 = add nsw i32 %33, %32
  store i32 %34, ptr %4, align 4, !tbaa !34
  br label %35

35:                                               ; preds = %31, %26
  %36 = load i32, ptr %6, align 4, !tbaa !34
  %37 = ashr i32 %36, 1
  store i32 %37, ptr %6, align 4, !tbaa !34
  br label %38

38:                                               ; preds = %35
  %39 = load i32, ptr %5, align 4, !tbaa !34
  %40 = ashr i32 %39, 1
  store i32 %40, ptr %5, align 4, !tbaa !34
  br label %23, !llvm.loop !51

41:                                               ; preds = %23
  %42 = load i32, ptr %4, align 4, !tbaa !34
  %43 = trunc i32 %42 to i16
  %44 = load i32, ptr %2, align 4, !tbaa !34
  %45 = zext i32 %44 to i64
  %46 = getelementptr inbounds nuw [11572 x i16], ptr @predict_table, i64 0, i64 %45
  store i16 %43, ptr %46, align 2, !tbaa !39
  call void @llvm.lifetime.end.p0(i64 4, ptr %6) #6
  call void @llvm.lifetime.end.p0(i64 4, ptr %5) #6
  call void @llvm.lifetime.end.p0(i64 4, ptr %4) #6
  br label %47

47:                                               ; preds = %41
  %48 = load i32, ptr %3, align 4, !tbaa !34
  %49 = add i32 %48, 1
  store i32 %49, ptr %3, align 4, !tbaa !34
  %50 = load i32, ptr %2, align 4, !tbaa !34
  %51 = add i32 %50, 64
  store i32 %51, ptr %2, align 4, !tbaa !34
  br label %13, !llvm.loop !52

52:                                               ; preds = %13
  call void @llvm.lifetime.end.p0(i64 4, ptr %3) #6
  call void @llvm.lifetime.end.p0(i64 4, ptr %2) #6
  br label %53

53:                                               ; preds = %52
  %54 = load i32, ptr %1, align 4, !tbaa !34
  %55 = add nsw i32 %54, 1
  store i32 %55, ptr %1, align 4, !tbaa !34
  br label %7, !llvm.loop !53

56:                                               ; preds = %10
  ret void
}