; Function Attrs: cold nofree norecurse nosync nounwind optsize memory(write, argmem: none, inaccessiblemem: none) uwtable
define internal void @predict_table_init() #3 {
  br label %.preheader

.preheader:                                       ; preds = %0, %14
  %indvars.iv29 = phi i64 [ 0, %0 ], [ %indvars.iv.next30, %14 ]
  %indvars36 = trunc i64 %indvars.iv29 to i32
  br label %2

1:                                                ; preds = %14
  ret void

2:                                                ; preds = %.preheader, %11
  %indvars.iv31 = phi i64 [ %indvars.iv29, %.preheader ], [ %indvars.iv.next32, %11 ]
  %indvars.iv = phi i64 [ 0, %.preheader ], [ %indvars.iv.next, %11 ]
  %3 = getelementptr inbounds nuw [89 x i16], ptr @ff_adpcm_step_table, i64 0, i64 %indvars.iv
  %4 = load i16, ptr %3, align 2, !tbaa !31
  %5 = sext i16 %4 to i32
  br label %6

6:                                                ; preds = %2, %6
  %.025 = phi i32 [ %5, %2 ], [ %9, %6 ]
  %.01624 = phi i32 [ 32, %2 ], [ %10, %6 ]
  %.01723 = phi i32 [ 0, %2 ], [ %spec.select, %6 ]
  %7 = and i32 %.01624, %indvars36
  %.not22 = icmp eq i32 %7, 0
  %8 = select i1 %.not22, i32 0, i32 %.025
  %spec.select = add nsw i32 %8, %.01723
  %9 = ashr i32 %.025, 1
  %10 = lshr i32 %.01624, 1
  %.not = icmp samesign ult i32 %.01624, 2
  br i1 %.not, label %11, label %6, !llvm.loop !43

11:                                               ; preds = %6
  %12 = trunc i32 %spec.select to i16
  %13 = getelementptr inbounds nuw [11572 x i16], ptr @predict_table, i64 0, i64 %indvars.iv31
  store i16 %12, ptr %13, align 2, !tbaa !31
  %indvars.iv.next = add nuw nsw i64 %indvars.iv, 1
  %indvars.iv.next32 = add nuw nsw i64 %indvars.iv31, 64
  %exitcond.not = icmp eq i64 %indvars.iv.next, 89
  br i1 %exitcond.not, label %14, label %2, !llvm.loop !44

14:                                               ; preds = %11
  %indvars.iv.next30 = add nuw nsw i64 %indvars.iv29, 1
  %exitcond37.not = icmp eq i64 %indvars.iv.next30, 64
  br i1 %exitcond37.not, label %1, label %.preheader, !llvm.loop !45
}